; Function Attrs: mustprogress uwtable
define dso_local void @_ZNK4Json5Value14toStyledStringB5cxx11Ev(ptr dead_on_unwind noalias writable sret(%"class.std::__cxx11::basic_string") align 8 %0, ptr noundef nonnull align 8 dereferenceable(40) %1) local_unnamed_addr #10 align 2 personality ptr @__gxx_personality_v0 {
  %3 = alloca %"class.Json::StreamWriterBuilder", align 8
  %4 = alloca %"class.std::allocator", align 1
  %5 = alloca %"class.std::__cxx11::basic_string", align 8
  call void @_ZN4Json19StreamWriterBuilderC1Ev(ptr noundef nonnull align 8 dereferenceable(48) %3)
  %6 = getelementptr inbounds i8, ptr %1, i64 16
  %7 = load ptr, ptr %6, align 8
  %.not.i.i = icmp eq ptr %7, null
  br i1 %.not.i.i, label %_ZNK4Json5Value10hasCommentENS_16CommentPlacementE.exit.thread, label %_ZNK4Json5Value10hasCommentENS_16CommentPlacementE.exit

_ZNK4Json5Value10hasCommentENS_16CommentPlacementE.exit: ; preds = %2
  %8 = call noundef zeroext i1 @_ZNKSt7__cxx1112basic_stringIcSt11char_traitsIcESaIcEE5emptyEv(ptr noundef nonnull align 8 dereferenceable(32) %7) #35
  %spec.select = select i1 %8, ptr @.str, ptr @.str.42
  br label %_ZNK4Json5Value10hasCommentENS_16CommentPlacementE.exit.thread

_ZNK4Json5Value10hasCommentENS_16CommentPlacementE.exit.thread: ; preds = %_ZNK4Json5Value10hasCommentENS_16CommentPlacementE.exit, %2
  %9 = phi ptr [ @.str, %2 ], [ %spec.select, %_ZNK4Json5Value10hasCommentENS_16CommentPlacementE.exit ]
  call void @_ZNSaIcEC1Ev(ptr noundef nonnull align 1 dereferenceable(1) %4) #35
  %10 = invoke noundef ptr @_ZNSt7__cxx1112basic_stringIcSt11char_traitsIcESaIcEE13_M_local_dataEv(ptr noundef nonnull align 8 dereferenceable(32) %0)
          to label %.noexc unwind label %19

.noexc:                                           ; preds = %_ZNK4Json5Value10hasCommentENS_16CommentPlacementE.exit.thread
  invoke void @_ZNSt7__cxx1112basic_stringIcSt11char_traitsIcESaIcEE12_Alloc_hiderC1EPcRKS3_(ptr noundef nonnull align 8 dereferenceable(8) %0, ptr noundef %10, ptr noundef nonnull align 1 dereferenceable(1) %4)
          to label %.noexc7 unwind label %19

.noexc7:                                          ; preds = %.noexc
  %11 = call noundef i64 @strlen(ptr noundef nonnull dereferenceable(1) %9) #35
  %12 = getelementptr inbounds i8, ptr %9, i64 %11
  invoke void @_ZNSt7__cxx1112basic_stringIcSt11char_traitsIcESaIcEE12_M_constructIPKcEEvT_S8_St20forward_iterator_tag(ptr noundef nonnull align 8 dereferenceable(32) %0, ptr noundef nonnull %9, ptr noundef nonnull %12)
          to label %_ZNSt7__cxx1112basic_stringIcSt11char_traitsIcESaIcEEC2IS3_EEPKcRKS3_.exit unwind label %13

13:                                               ; preds = %.noexc7
  %14 = landingpad { ptr, i32 }
          cleanup
  call void @_ZNSaIcED2Ev(ptr noundef nonnull align 1 dereferenceable(1) %0) #35
  br label %.body

_ZNSt7__cxx1112basic_stringIcSt11char_traitsIcESaIcEEC2IS3_EEPKcRKS3_.exit: ; preds = %.noexc7
  call void @_ZNSaIcED1Ev(ptr noundef nonnull align 1 dereferenceable(1) %4) #35
  invoke void @_ZN4Json11writeStringB5cxx11ERKNS_12StreamWriter7FactoryERKNS_5ValueE(ptr dead_on_unwind nonnull writable sret(%"class.std::__cxx11::basic_string") align 8 %5, ptr noundef nonnull align 8 dereferenceable(8) %3, ptr noundef nonnull align 8 dereferenceable(40) %1)
          to label %15 unwind label %21

15:                                               ; preds = %_ZNSt7__cxx1112basic_stringIcSt11char_traitsIcESaIcEEC2IS3_EEPKcRKS3_.exit
  %16 = invoke noundef nonnull align 8 dereferenceable(32) ptr @_ZNSt7__cxx1112basic_stringIcSt11char_traitsIcESaIcEEpLERKS4_(ptr noundef nonnull align 8 dereferenceable(32) %0, ptr noundef nonnull align 8 dereferenceable(32) %5)
          to label %17 unwind label %23

17:                                               ; preds = %15
  call void @_ZNSt7__cxx1112basic_stringIcSt11char_traitsIcESaIcEED1Ev(ptr noundef nonnull align 8 dereferenceable(32) %5) #35
  %18 = invoke noundef nonnull align 8 dereferenceable(32) ptr @_ZNSt7__cxx1112basic_stringIcSt11char_traitsIcESaIcEEpLEc(ptr noundef nonnull align 8 dereferenceable(32) %0, i8 noundef signext 10)
          to label %25 unwind label %21

19:                                               ; preds = %.noexc, %_ZNK4Json5Value10hasCommentENS_16CommentPlacementE.exit.thread
  %20 = landingpad { ptr, i32 }
          cleanup
  br label %.body

.body:                                            ; preds = %13, %19
  %eh.lpad-body = phi { ptr, i32 } [ %20, %19 ], [ %14, %13 ]
  call void @_ZNSaIcED1Ev(ptr noundef nonnull align 1 dereferenceable(1) %4) #35
  br label %27

21:                                               ; preds = %17, %_ZNSt7__cxx1112basic_stringIcSt11char_traitsIcESaIcEEC2IS3_EEPKcRKS3_.exit
  %22 = landingpad { ptr, i32 }
          cleanup
  br label %26

23:                                               ; preds = %15
  %24 = landingpad { ptr, i32 }
          cleanup
  call void @_ZNSt7__cxx1112basic_stringIcSt11char_traitsIcESaIcEED1Ev(ptr noundef nonnull align 8 dereferenceable(32) %5) #35
  br label %26

25:                                               ; preds = %17
  call void @_ZN4Json19StreamWriterBuilderD1Ev(ptr noundef nonnull align 8 dereferenceable(48) %3) #35
  ret void

26:                                               ; preds = %23, %21
  %.pn = phi { ptr, i32 } [ %22, %21 ], [ %24, %23 ]
  call void @_ZNSt7__cxx1112basic_stringIcSt11char_traitsIcESaIcEED1Ev(ptr noundef nonnull align 8 dereferenceable(32) %0) #35
  br label %27

27:                                               ; preds = %26, %.body
  %.pn.pn = phi { ptr, i32 } [ %.pn, %26 ], [ %eh.lpad-body, %.body ]
  call void @_ZN4Json19StreamWriterBuilderD1Ev(ptr noundef nonnull align 8 dereferenceable(48) %3) #35
  resume { ptr, i32 } %.pn.pn
}